target datalayout = "e-m:e-p270:32:32-p271:32:32-p272:64:64-i64:64-i128:128-f80:128-n8:16:32:64-S128"
target triple = "x86_64-pc-linux-gnu"

%struct.png_struct_def = type { [1 x %struct.__jmp_buf_tag], ptr, ptr, i64, ptr, ptr, ptr, ptr, ptr, ptr, ptr, ptr, ptr, i8, i8, i32, i32, i32, i32, %struct.z_stream_s, ptr, i32, i32, i32, i32, i32, i32, i32, i32, i32, i32, i32, i32, i32, i32, i32, i32, i32, i32, i32, i32, i32, i64, i32, i32, i32, ptr, ptr, ptr, ptr, i64, i32, i32, ptr, i16, i32, i16, i8, i8, i8, i8, i8, i8, i8, i8, i8, i8, i8, i8, i8, i8, i8, i16, i8, i32, %struct.png_color_16_struct, %struct.png_color_16_struct, ptr, i32, i32, %struct.png_xy, i32, i32, i32, i32, i32, ptr, ptr, ptr, ptr, ptr, ptr, %struct.png_color_8_struct, %struct.png_color_8_struct, ptr, %struct.png_color_16_struct, ptr, ptr, ptr, ptr, ptr, ptr, ptr, ptr, ptr, i32, i32, i64, i64, i64, i64, i32, i32, ptr, ptr, i32, [29 x i8], i32, ptr, ptr, i32, i32, ptr, i8, i8, i16, i16, ptr, i32, i8, ptr, ptr, ptr, ptr, ptr, ptr, ptr, i8, i32, i32, i32, i64, %struct.png_unknown_chunk_t, i64, ptr, i64, i32, i32, ptr, [4 x ptr] }
%struct.__jmp_buf_tag = type { [8 x i64], i32, %struct.__sigset_t }
%struct.__sigset_t = type { [16 x i64] }
%struct.z_stream_s = type { ptr, i32, i64, ptr, i32, i64, ptr, ptr, ptr, ptr, ptr, i32, i64, i64 }
%struct.png_xy = type { i32, i32, i32, i32, i32, i32, i32, i32 }
%struct.png_color_8_struct = type { i8, i8, i8, i8, i8 }
%struct.png_color_16_struct = type { i8, i16, i16, i16, i16 }
%struct.png_unknown_chunk_t = type { [5 x i8], ptr, i64, i8 }

@.str.57 = private unnamed_addr constant [15 x i8] c" using zstream\00", align 1
@.str.58 = private unnamed_addr constant [7 x i8] c"1.2.11\00", align 1

; Function Attrs: nounwind uwtable
define internal i32 @png_inflate_claim(ptr noalias noundef %0, i32 noundef %1) #0 {
  %3 = alloca ptr, align 8
  %4 = alloca i32, align 4
  %5 = alloca [64 x i8], align 16
  %6 = alloca i32, align 4
  %7 = alloca i32, align 4
  store ptr %0, ptr %3, align 8, !tbaa !3
  store i32 %1, ptr %4, align 4, !tbaa !11
  %8 = load ptr, ptr %3, align 8, !tbaa !3
  %9 = getelementptr inbounds nuw %struct.png_struct_def, ptr %8, i32 0, i32 18
  %10 = load i32, ptr %9, align 8, !tbaa !93
  %11 = icmp ne i32 %10, 0
  br i1 %11, label %12, label %48

12:                                               ; preds = %2
  call void @llvm.lifetime.start.p0(i64 64, ptr %5) #7
  %13 = load ptr, ptr %3, align 8, !tbaa !3
  %14 = getelementptr inbounds nuw %struct.png_struct_def, ptr %13, i32 0, i32 18
  %15 = load i32, ptr %14, align 8, !tbaa !93
  %16 = lshr i32 %15, 24
  %17 = and i32 %16, 255
  %18 = trunc i32 %17 to i8
  %19 = getelementptr inbounds [64 x i8], ptr %5, i64 0, i64 0
  %20 = getelementptr inbounds i8, ptr %19, i64 0
  store i8 %18, ptr %20, align 16, !tbaa !10
  %21 = load ptr, ptr %3, align 8, !tbaa !3
  %22 = getelementptr inbounds nuw %struct.png_struct_def, ptr %21, i32 0, i32 18
  %23 = load i32, ptr %22, align 8, !tbaa !93
  %24 = lshr i32 %23, 16
  %25 = and i32 %24, 255
  %26 = trunc i32 %25 to i8
  %27 = getelementptr inbounds [64 x i8], ptr %5, i64 0, i64 0
  %28 = getelementptr inbounds i8, ptr %27, i64 1
  store i8 %26, ptr %28, align 1, !tbaa !10
  %29 = load ptr, ptr %3, align 8, !tbaa !3
  %30 = getelementptr inbounds nuw %struct.png_struct_def, ptr %29, i32 0, i32 18
  %31 = load i32, ptr %30, align 8, !tbaa !93
  %32 = lshr i32 %31, 8
  %33 = and i32 %32, 255
  %34 = trunc i32 %33 to i8
  %35 = getelementptr inbounds [64 x i8], ptr %5, i64 0, i64 0
  %36 = getelementptr inbounds i8, ptr %35, i64 2
  store i8 %34, ptr %36, align 2, !tbaa !10
  %37 = load ptr, ptr %3, align 8, !tbaa !3
  %38 = getelementptr inbounds nuw %struct.png_struct_def, ptr %37, i32 0, i32 18
  %39 = load i32, ptr %38, align 8, !tbaa !93
  %40 = and i32 %39, 255
  %41 = trunc i32 %40 to i8
  %42 = getelementptr inbounds [64 x i8], ptr %5, i64 0, i64 0
  %43 = getelementptr inbounds i8, ptr %42, i64 3
  store i8 %41, ptr %43, align 1, !tbaa !10
  %44 = getelementptr inbounds [64 x i8], ptr %5, i64 0, i64 0
  %45 = call i64 @png_safecat(ptr noundef %44, i64 noundef 64, i64 noundef 4, ptr noundef @.str.57)
  %46 = load ptr, ptr %3, align 8, !tbaa !3
  %47 = getelementptr inbounds [64 x i8], ptr %5, i64 0, i64 0
  call void @png_chunk_error(ptr noundef %46, ptr noundef %47) #8
  unreachable

48:                                               ; preds = %2
  call void @llvm.lifetime.start.p0(i64 4, ptr %6) #7
  call void @llvm.lifetime.start.p0(i64 4, ptr %7) #7
  store i32 0, ptr %7, align 4, !tbaa !11
  %49 = load ptr, ptr %3, align 8, !tbaa !3
  %50 = getelementptr inbounds nuw %struct.png_struct_def, ptr %49, i32 0, i32 115
  %51 = load i32, ptr %50, align 8, !tbaa !110
  %52 = lshr i32 %51, 2
  %53 = and i32 %52, 3
  %54 = icmp eq i32 %53, 3
  br i1 %54, label %55, label %58

55:                                               ; preds = %48
  store i32 15, ptr %7, align 4, !tbaa !11
  %56 = load ptr, ptr %3, align 8, !tbaa !3
  %57 = getelementptr inbounds nuw %struct.png_struct_def, ptr %56, i32 0, i32 71
  store i8 0, ptr %57, align 8, !tbaa !36
  br label %61

58:                                               ; preds = %48
  %59 = load ptr, ptr %3, align 8, !tbaa !3
  %60 = getelementptr inbounds nuw %struct.png_struct_def, ptr %59, i32 0, i32 71
  store i8 1, ptr %60, align 8, !tbaa !36
  br label %61

61:                                               ; preds = %58, %55
  %62 = load ptr, ptr %3, align 8, !tbaa !3
  %63 = getelementptr inbounds nuw %struct.png_struct_def, ptr %62, i32 0, i32 19
  %64 = getelementptr inbounds nuw %struct.z_stream_s, ptr %63, i32 0, i32 0
  store ptr null, ptr %64, align 8, !tbaa !38
  %65 = load ptr, ptr %3, align 8, !tbaa !3
  %66 = getelementptr inbounds nuw %struct.png_struct_def, ptr %65, i32 0, i32 19
  %67 = getelementptr inbounds nuw %struct.z_stream_s, ptr %66, i32 0, i32 1
  store i32 0, ptr %67, align 8, !tbaa !37
  %68 = load ptr, ptr %3, align 8, !tbaa !3
  %69 = getelementptr inbounds nuw %struct.png_struct_def, ptr %68, i32 0, i32 19
  %70 = getelementptr inbounds nuw %struct.z_stream_s, ptr %69, i32 0, i32 3
  store ptr null, ptr %70, align 8, !tbaa !85
  %71 = load ptr, ptr %3, align 8, !tbaa !3
  %72 = getelementptr inbounds nuw %struct.png_struct_def, ptr %71, i32 0, i32 19
  %73 = getelementptr inbounds nuw %struct.z_stream_s, ptr %72, i32 0, i32 4
  store i32 0, ptr %73, align 8, !tbaa !86
  %74 = load ptr, ptr %3, align 8, !tbaa !3
  %75 = getelementptr inbounds nuw %struct.png_struct_def, ptr %74, i32 0, i32 16
  %76 = load i32, ptr %75, align 8, !tbaa !35
  %77 = and i32 %76, 2
  %78 = icmp ne i32 %77, 0
  br i1 %78, label %79, label %84

79:                                               ; preds = %61
  %80 = load ptr, ptr %3, align 8, !tbaa !3
  %81 = getelementptr inbounds nuw %struct.png_struct_def, ptr %80, i32 0, i32 19
  %82 = load i32, ptr %7, align 4, !tbaa !11
  %83 = call i32 @inflateReset2(ptr noundef %81, i32 noundef %82)
  store i32 %83, ptr %6, align 4, !tbaa !11
  br label %97

84:                                               ; preds = %61
  %85 = load ptr, ptr %3, align 8, !tbaa !3
  %86 = getelementptr inbounds nuw %struct.png_struct_def, ptr %85, i32 0, i32 19
  %87 = load i32, ptr %7, align 4, !tbaa !11
  %88 = call i32 @inflateInit2_(ptr noundef %86, i32 noundef %87, ptr noundef @.str.58, i32 noundef 112)
  store i32 %88, ptr %6, align 4, !tbaa !11
  %89 = load i32, ptr %6, align 4, !tbaa !11
  %90 = icmp eq i32 %89, 0
  br i1 %90, label %91, label %96

91:                                               ; preds = %84
  %92 = load ptr, ptr %3, align 8, !tbaa !3
  %93 = getelementptr inbounds nuw %struct.png_struct_def, ptr %92, i32 0, i32 16
  %94 = load i32, ptr %93, align 8, !tbaa !35
  %95 = or i32 %94, 2
  store i32 %95, ptr %93, align 8, !tbaa !35
  br label %96

96:                                               ; preds = %91, %84
  br label %97

97:                                               ; preds = %96, %79
  %98 = load i32, ptr %6, align 4, !tbaa !11
  %99 = icmp eq i32 %98, 0
  br i1 %99, label %100, label %104

100:                                              ; preds = %97
  %101 = load i32, ptr %4, align 4, !tbaa !11
  %102 = load ptr, ptr %3, align 8, !tbaa !3
  %103 = getelementptr inbounds nuw %struct.png_struct_def, ptr %102, i32 0, i32 18
  store i32 %101, ptr %103, align 8, !tbaa !93
  br label %107

104:                                              ; preds = %97
  %105 = load ptr, ptr %3, align 8, !tbaa !3
  %106 = load i32, ptr %6, align 4, !tbaa !11
  call void @png_zstream_error(ptr noundef %105, i32 noundef %106)
  br label %107

107:                                              ; preds = %104, %100
  %108 = load i32, ptr %6, align 4, !tbaa !11
  call void @llvm.lifetime.end.p0(i64 4, ptr %7) #7
  call void @llvm.lifetime.end.p0(i64 4, ptr %6) #7
  ret i32 %108
}