; Function Attrs: nounwind uwtable
define internal fastcc noundef i32 @png_inflate_claim(ptr noalias noundef %0, i32 noundef %1) unnamed_addr #0 {
  %3 = alloca [64 x i8], align 16
  %4 = getelementptr inbounds nuw i8, ptr %0, i64 312
  %5 = load i32, ptr %4, align 8, !tbaa !112
  %.not = icmp eq i32 %5, 0
  br i1 %.not, label %18, label %6

6:                                                ; preds = %2
  call void @llvm.lifetime.start.p0(i64 64, ptr nonnull %3) #12
  %7 = lshr i32 %5, 24
  %8 = trunc nuw i32 %7 to i8
  store i8 %8, ptr %3, align 16, !tbaa !3
  %9 = lshr i32 %5, 16
  %10 = trunc i32 %9 to i8
  %11 = getelementptr inbounds nuw i8, ptr %3, i64 1
  store i8 %10, ptr %11, align 1, !tbaa !3
  %12 = lshr i32 %5, 8
  %13 = trunc i32 %12 to i8
  %14 = getelementptr inbounds nuw i8, ptr %3, i64 2
  store i8 %13, ptr %14, align 2, !tbaa !3
  %15 = trunc i32 %5 to i8
  %16 = getelementptr inbounds nuw i8, ptr %3, i64 3
  store i8 %15, ptr %16, align 1, !tbaa !3
  %17 = call i64 @png_safecat(ptr noundef nonnull %3, i64 noundef 64, i64 noundef 4, ptr noundef nonnull @.str.57) #12
  call void @png_chunk_error(ptr noundef nonnull %0, ptr noundef nonnull %3) #11
  unreachable

18:                                               ; preds = %2
  %19 = getelementptr inbounds nuw i8, ptr %0, i64 960
  %20 = load i32, ptr %19, align 8, !tbaa !132
  %21 = and i32 %20, 12
  %22 = icmp ne i32 %21, 12
  %spec.select = zext i1 %22 to i8
  %spec.select34 = select i1 %22, i32 0, i32 15
  %23 = getelementptr inbounds nuw i8, ptr %0, i64 632
  store i8 %spec.select, ptr %23, align 8, !tbaa !38
  %24 = getelementptr inbounds nuw i8, ptr %0, i64 320
  store ptr null, ptr %24, align 8, !tbaa !40
  %25 = getelementptr inbounds nuw i8, ptr %0, i64 328
  store i32 0, ptr %25, align 8, !tbaa !39
  %26 = getelementptr inbounds nuw i8, ptr %0, i64 344
  store ptr null, ptr %26, align 8, !tbaa !85
  %27 = getelementptr inbounds nuw i8, ptr %0, i64 352
  store i32 0, ptr %27, align 8, !tbaa !86
  %28 = getelementptr inbounds nuw i8, ptr %0, i64 304
  %29 = load i32, ptr %28, align 8, !tbaa !31
  %30 = and i32 %29, 2
  %.not27 = icmp eq i32 %30, 0
  br i1 %.not27, label %31, label %36

31:                                               ; preds = %18
  %32 = tail call i32 @inflateInit2_(ptr noundef nonnull %24, i32 noundef %spec.select34, ptr noundef nonnull @.str.58, i32 noundef 112) #12
  %33 = icmp eq i32 %32, 0
  br i1 %33, label %.thread, label %.thread31

.thread:                                          ; preds = %31
  %34 = load i32, ptr %28, align 8, !tbaa !31
  %35 = or i32 %34, 2
  store i32 %35, ptr %28, align 8, !tbaa !31
  br label %39

36:                                               ; preds = %18
  %37 = tail call i32 @inflateReset2(ptr noundef nonnull %24, i32 noundef %spec.select34) #12
  %38 = icmp eq i32 %37, 0
  br i1 %38, label %39, label %.thread31

39:                                               ; preds = %.thread, %36
  store i32 %1, ptr %4, align 8, !tbaa !112
  br label %40

.thread31:                                        ; preds = %31, %36
  %.02533 = phi i32 [ %37, %36 ], [ %32, %31 ]
  tail call void @png_zstream_error(ptr noundef nonnull %0, i32 noundef %.02533) #12
  br label %40

40:                                               ; preds = %.thread31, %39
  %.02529 = phi i32 [ %.02533, %.thread31 ], [ 0, %39 ]
  ret i32 %.02529
}